target datalayout = "e-m:e-p270:32:32-p271:32:32-p272:64:64-i64:64-i128:128-f80:128-n8:16:32:64-S128"
target triple = "x86_64-pc-linux-gnu"

; Function Attrs: mustprogress nounwind uwtable
define internal noundef i32 @_ZL12_hb_emoji_b1PKhj(ptr noundef %0, i32 noundef %1) #3 {
  %3 = alloca ptr, align 8
  %4 = alloca i32, align 4
  store ptr %0, ptr %3, align 8
  store i32 %1, ptr %4, align 4
  %5 = load ptr, ptr %3, align 8
  %6 = load i32, ptr %4, align 4
  %7 = lshr i32 %6, 3
  %8 = zext i32 %7 to i64
  %9 = getelementptr inbounds i8, ptr %5, i64 %8
  %10 = load i8, ptr %9, align 1
  %11 = zext i8 %10 to i32
  %12 = load i32, ptr %4, align 4
  %13 = and i32 %12, 7
  %14 = shl i32 %13, 0
  %15 = ashr i32 %11, %14
  %16 = and i32 %15, 1
  ret i32 %16
}

; Function Attrs: mustprogress nounwind uwtable
define internal noundef i32 @_ZL12_hb_emoji_b4PKhj(ptr noundef %0, i32 noundef %1) #3 {
  %3 = alloca ptr, align 8
  %4 = alloca i32, align 4
  store ptr %0, ptr %3, align 8
  store i32 %1, ptr %4, align 4
  %5 = load ptr, ptr %3, align 8
  %6 = load i32, ptr %4, align 4
  %7 = lshr i32 %6, 1
  %8 = zext i32 %7 to i64
  %9 = getelementptr inbounds i8, ptr %5, i64 %8
  %10 = load i8, ptr %9, align 1
  %11 = zext i8 %10 to i32
  %12 = load i32, ptr %4, align 4
  %13 = and i32 %12, 1
  %14 = shl i32 %13, 2
  %15 = ashr i32 %11, %14
  %16 = and i32 %15, 15
  ret i32 %16
}

; Function Attrs: mustprogress uwtable
define internal noundef zeroext i8 @_ZL34_hb_emoji_is_Extended_Pictographicj(i32 noundef %0) #0 {
  %2 = alloca i32, align 4
  store i32 %0, ptr %2, align 4
  %3 = load i32, ptr %2, align 4
  %4 = icmp ult i32 %3, 131070
  br i1 %4, label %5, label %37

5:                                                ; preds = %1
  %6 = load i32, ptr %2, align 4
  %7 = lshr i32 %6, 5
  %8 = lshr i32 %7, 2
  %9 = lshr i32 %8, 3
  %10 = call noundef i32 @_ZL12_hb_emoji_b4PKhj(ptr noundef @_ZL12_hb_emoji_u8, i32 noundef %9)
  %11 = shl i32 %10, 3
  %12 = load i32, ptr %2, align 4
  %13 = lshr i32 %12, 5
  %14 = lshr i32 %13, 2
  %15 = and i32 %14, 7
  %16 = add i32 %11, %15
  %17 = add i32 64, %16
  %18 = zext i32 %17 to i64
  %19 = getelementptr inbounds [464 x i8], ptr @_ZL12_hb_emoji_u8, i64 0, i64 %18
  %20 = load i8, ptr %19, align 1
  %21 = zext i8 %20 to i32
  %22 = shl i32 %21, 2
  %23 = load i32, ptr %2, align 4
  %24 = lshr i32 %23, 5
  %25 = and i32 %24, 3
  %26 = add i32 %22, %25
  %27 = add i32 144, %26
  %28 = zext i32 %27 to i64
  %29 = getelementptr inbounds [464 x i8], ptr @_ZL12_hb_emoji_u8, i64 0, i64 %28
  %30 = load i8, ptr %29, align 1
  %31 = zext i8 %30 to i32
  %32 = shl i32 %31, 5
  %33 = load i32, ptr %2, align 4
  %34 = and i32 %33, 31
  %35 = add i32 %32, %34
  %36 = call noundef i32 @_ZL12_hb_emoji_b1PKhj(ptr noundef getelementptr inbounds (i8, ptr @_ZL12_hb_emoji_u8, i64 264), i32 noundef %35)
  br label %38

37:                                               ; preds = %1
  br label %38

38:                                               ; preds = %37, %5
  %39 = phi i32 [ %36, %5 ], [ 0, %37 ]
  %40 = trunc i32 %39 to i8
  ret i8 %40
}

; Function Attrs: mustprogress uwtable
define hidden noundef zeroext i1 @_Z42_hb_unicode_is_emoji_Extended_Pictographicj(i32 noundef %0) #0 {
  %2 = alloca i32, align 4
  store i32 %0, ptr %2, align 4
  %3 = load i32, ptr %2, align 4
  %4 = call noundef zeroext i8 @_ZL34_hb_emoji_is_Extended_Pictographicj(i32 noundef %3)
  %5 = icmp ne i8 %4, 0
  ret i1 %5
}