; Function Attrs: mustprogress nofree norecurse nosync nounwind willreturn memory(none) uwtable
define hidden noundef zeroext i1 @_Z42_hb_unicode_is_emoji_Extended_Pictographicj(i32 noundef %0) local_unnamed_addr #3 {
  %2 = icmp ult i32 %0, 131070
  br i1 %2, label %3, label %_ZL34_hb_emoji_is_Extended_Pictographicj.exit

3:                                                ; preds = %1
  %4 = lshr i32 %0, 5
  %5 = lshr i32 %0, 7
  %6 = lshr i32 %0, 11
  %7 = zext nneg i32 %6 to i64
  %8 = getelementptr inbounds i8, ptr @_ZL12_hb_emoji_u8, i64 %7
  %9 = load i8, ptr %8, align 1
  %10 = zext i8 %9 to i32
  %11 = lshr i32 %0, 8
  %12 = and i32 %11, 4
  %13 = lshr i32 %10, %12
  %14 = shl nuw nsw i32 %13, 3
  %15 = and i32 %14, 120
  %16 = and i32 %5, 7
  %17 = or disjoint i32 %16, 64
  %18 = add nuw nsw i32 %17, %15
  %19 = zext nneg i32 %18 to i64
  %20 = getelementptr inbounds [464 x i8], ptr @_ZL12_hb_emoji_u8, i64 0, i64 %19
  %21 = load i8, ptr %20, align 1
  %22 = zext i8 %21 to i32
  %23 = shl nuw nsw i32 %22, 2
  %24 = and i32 %4, 3
  %25 = or disjoint i32 %24, 144
  %26 = add nuw nsw i32 %25, %23
  %27 = zext nneg i32 %26 to i64
  %28 = getelementptr inbounds [464 x i8], ptr @_ZL12_hb_emoji_u8, i64 0, i64 %27
  %29 = load i8, ptr %28, align 1
  %30 = zext i8 %29 to i32
  %31 = shl nuw nsw i32 %30, 5
  %32 = and i32 %0, 24
  %33 = or disjoint i32 %31, %32
  %34 = lshr exact i32 %33, 3
  %35 = zext nneg i32 %34 to i64
  %36 = getelementptr inbounds i8, ptr getelementptr inbounds (i8, ptr @_ZL12_hb_emoji_u8, i64 264), i64 %35
  %37 = load i8, ptr %36, align 1
  %38 = zext i8 %37 to i32
  %39 = and i32 %0, 7
  %40 = shl nuw nsw i32 1, %39
  %41 = and i32 %40, %38
  %42 = icmp ne i32 %41, 0
  br label %_ZL34_hb_emoji_is_Extended_Pictographicj.exit

_ZL34_hb_emoji_is_Extended_Pictographicj.exit:    ; preds = %1, %3
  %43 = phi i1 [ %42, %3 ], [ false, %1 ]
  ret i1 %43
}